Certificate:
    Data:
        Version: 3 (0x2)
        Serial Number: 4 (0x4)
        Signature Algorithm: sha256WithRSAEncryption
        Issuer: C=US, ST=CA, L=San Jose, CN=www.ixsystems.com/emailAddress=hostmaster@ixsystems.com
        Validity
            Not Before: Nov 11 19:19:03 2014 GMT
            Not After : Aug 10 19:19:03 2024 GMT
        Subject: C=US, ST=CA, L=San Jose, CN=update.freenas.org
        Subject Public Key Info:
            Public Key Algorithm: rsaEncryption
            RSA Public Key: (1024 bit)
                Modulus (1024 bit):
                    00:ab:df:d5:05:5e:61:c1:2a:55:16:ca:de:6c:85:
                    f0:2c:82:83:a8:ca:6f:0f:29:bb:a2:61:30:d9:9f:
                    8f:6a:f3:20:33:cf:49:81:c6:7c:19:4b:85:f8:c8:
                    9b:fb:d8:5c:a9:dc:ec:45:c7:2d:50:5b:8d:b1:66:
                    66:28:89:94:d0:bc:3a:a6:7f:f8:50:cb:04:8d:38:
                    e4:70:0e:54:86:3f:e7:d7:e7:86:e5:7b:de:6a:76:
                    bd:3b:7a:eb:d0:ca:fd:3e:01:37:98:a2:5a:59:13:
                    1b:16:03:d3:e8:d5:16:2c:c2:9e:03:82:57:4f:9b:
                    4d:81:f3:0b:ae:2f:f0:b6:a5
                Exponent: 65537 (0x10001)
        X509v3 extensions:
            X509v3 Subject Key Identifier: 
                3D:63:40:43:EF:21:65:E8:F0:6C:F3:5D:BA:12:81:40:F6:75:C7:BA
            X509v3 Authority Key Identifier: 
                keyid:B0:35:1E:CA:99:FA:54:80:2C:6D:4A:64:C4:21:C5:76:4B:A1:3B:57

            X509v3 Basic Constraints: 
                CA:FALSE
            X509v3 Key Usage: 
                Digital Signature, Non Repudiation, Key Encipherment
            X509v3 Subject Alternative Name: 
                DNS:beta-update.freenas.org, DNS:update.freenas.org
            Netscape Comment: 
                OpenSSL Generated Certificate
    Signature Algorithm: sha256WithRSAEncryption
        73:b4:a2:bd:39:e6:9d:98:c5:9c:a6:d3:c5:6c:3e:77:53:8f:
        de:aa:17:08:a0:e6:aa:01:4f:29:6d:44:6d:f6:d7:ea:18:60:
        e6:54:2f:75:94:05:2c:45:4d:b0:58:da:b3:c2:69:ef:fe:97:
        6d:75:19:6b:52:56:a3:08:79:ba:16:33:42:87:35:a1:92:41:
        24:51:81:54:f4:68:2a:b1:fd:c9:4f:8a:62:8b:d3:40:d0:c5:
        e7:cf:8c:27:8f:4a:e4:0e:5e:c7:b8:cf:cf:d7:0d:31:80:51:
        e3:14:04:a3:53:ba:94:f8:e4:50:99:86:fd:f5:ee:f2:0f:9e:
        f8:59:91:9b:97:c3:6e:61:33:e8:fb:0d:19:e6:f5:b8:01:d0:
        2e:41:4e:b1:6c:4a:f5:c8:9e:e0:3e:b1:fe:c1:86:f8:94:be:
        44:92:72:8f:62:b4:19:4b:bb:14:0e:63:54:c5:4a:da:f1:53:
        75:73:bb:9f:f4:46:af:51:26:f1:ba:c4:e4:91:87:09:e4:5e:
        af:b4:f1:e4:ab:e4:7a:b8:dd:59:ca:db:bb:22:48:77:10:40:
        4a:8a:77:cd:2f:d3:fb:df:e5:7c:19:61:a2:6e:6f:27:8e:f1:
        0e:01:ce:f7:2c:86:05:8a:60:b4:ea:ed:e5:12:94:db:06:14:
        25:8c:df:92:a1:72:55:94:e5:a4:04:71:c2:58:99:36:16:d4:
        56:b2:96:09:4f:2a:50:49:f2:f0:67:65:e1:0b:bf:a7:3c:c3:
        7a:fa:76:7c:98:41:ae:bd:97:61:8a:ca:26:3e:ce:88:13:f0:
        54:ef:0f:e0:68:a7:0a:86:68:70:db:1c:d0:fd:5a:69:29:a1:
        f6:0e:63:91:6f:df:95:47:22:57:4a:4f:51:a6:c3:6b:a2:bb:
        ce:7c:84:08:01:18:88:3b:dd:0d:14:8b:e9:25:f9:c9:d1:98:
        ad:27:12:0e:82:ec:71:7f:67:9a:ef:76:59:b5:46:73:c3:50:
        ca:2b:01:ee:88:3a:14:eb:45:a0:8a:a4:26:5b:76:a4:7f:b1:
        71:69:59:c6:3b:39:2f:51:0e:d3:aa:a2:b3:47:04:2b:bb:b6:
        eb:c2:4b:94:cb:fc:bd:0f:f2:2e:3a:11:10:06:cb:17:d2:a4:
        a0:a5:d7:4d:b7:21:de:e6:c1:7e:68:a0:79:db:de:39:82:f3:
        9e:eb:de:64:c1:e6:16:93:ef:67:68:89:f6:d1:f6:b0:da:9f:
        b1:96:89:f9:41:05:7c:72:6b:e4:91:84:6d:1a:1a:24:ba:30:
        54:5d:db:97:cf:f2:26:1e:ae:3d:74:6b:20:26:9b:50:7b:9b:
        2b:62:8e:48:41:9c:2f:17
-----BEGIN CERTIFICATE-----
MIIEdTCCAl2gAwIBAgIBBDANBgkqhkiG9w0BAQsFADByMQswCQYDVQQGEwJVUzEL
MAkGA1UECAwCQ0ExETAPBgNVBAcMCFNhbiBKb3NlMRowGAYDVQQDDBF3d3cuaXhz
eXN0ZW1zLmNvbTEnMCUGCSqGSIb3DQEJARYYaG9zdG1hc3RlckBpeHN5c3RlbXMu
Y29tMB4XDTE0MTExMTE5MTkwM1oXDTI0MDgxMDE5MTkwM1owSjELMAkGA1UEBhMC
VVMxCzAJBgNVBAgMAkNBMREwDwYDVQQHDAhTYW4gSm9zZTEbMBkGA1UEAwwSdXBk
YXRlLmZyZWVuYXMub3JnMIGfMA0GCSqGSIb3DQEBAQUAA4GNADCBiQKBgQCr39UF
XmHBKlUWyt5shfAsgoOoym8PKbuiYTDZn49q8yAzz0mBxnwZS4X4yJv72Fyp3OxF
xy1QW42xZmYoiZTQvDqmf/hQywSNOORwDlSGP+fX54ble95qdr07euvQyv0+ATeY
olpZExsWA9Po1RYswp4DgldPm02B8wuuL/C2pQIDAQABo4HBMIG+MB0GA1UdDgQW
BBQ9Y0BD7yFl6PBs8126EoFA9nXHujAfBgNVHSMEGDAWgBSwNR7KmfpUgCxtSmTE
IcV2S6E7VzAJBgNVHRMEAjAAMAsGA1UdDwQEAwIF4DA2BgNVHREELzAtghdiZXRh
LXVwZGF0ZS5mcmVlbmFzLm9yZ4ISdXBkYXRlLmZyZWVuYXMub3JnMCwGCWCGSAGG
+EIBDQQfFh1PcGVuU1NMIEdlbmVyYXRlZCBDZXJ0aWZpY2F0ZTANBgkqhkiG9w0B
AQsFAAOCAgEAc7SivTnmnZjFnKbTxWw+d1OP3qoXCKDmqgFPKW1EbfbX6hhg5lQv
dZQFLEVNsFjas8Jp7/6XbXUZa1JWowh5uhYzQoc1oZJBJFGBVPRoKrH9yU+KYovT
QNDF58+MJ49K5A5ex7jPz9cNMYBR4xQEo1O6lPjkUJmG/fXu8g+e+FmRm5fDbmEz
6PsNGeb1uAHQLkFOsWxK9cie4D6x/sGG+JS+RJJyj2K0GUu7FA5jVMVK2vFTdXO7
n/RGr1Em8brE5JGHCeRer7Tx5KvkerjdWcrbuyJIdxBASop3zS/T+9/lfBlhom5v
J47xDgHO9yyGBYpgtOrt5RKU2wYUJYzfkqFyVZTlpARxwliZNhbUVrKWCU8qUEny
8Gdl4Qu/pzzDevp2fJhBrr2XYYrKJj7OiBPwVO8P4GinCoZocNsc0P1aaSmh9g5j
kW/flUciV0pPUabDa6K7znyECAEYiDvdDRSL6SX5ydGYrScSDoLscX9nmu92WbVG
c8NQyisB7og6FOtFoIqkJlt2pH+xcWlZxjs5L1EO06qis0cEK7u268JLlMv8vQ/y
LjoREAbLF9KkoKXXTbch3ubBfmigedveOYLznuveZMHmFpPvZ2iJ9tH2sNqfsZaJ
+UEFfHJr5JGEbRoaJLowVF3bl8/yJh6uPXRrICabUHubK2KOSEGcLxc=
-----END CERTIFICATE-----
