Certificate:
    Data:
        Version: 3 (0x2)
        Serial Number: 6 (0x6)
        Signature Algorithm: sha256WithRSAEncryption
        Issuer: C=US, ST=CA, L=San Jose, CN=www.ixsystems.com/emailAddress=hostmaster@ixsystems.com
        Validity
            Not Before: Jun  6 17:59:36 2016 GMT
            Not After : Mar  6 17:59:36 2026 GMT
        Subject: C=US, ST=CA, L=San Jose, CN=update.freenas.org
        Subject Public Key Info:
            Public Key Algorithm: rsaEncryption
            RSA Public Key: (2048 bit)
                Modulus (2048 bit):
                    00:d1:7e:25:e7:25:ee:23:21:3f:0f:a9:a7:83:57:
                    ce:6f:06:b6:48:a9:54:f4:77:ed:0f:62:45:79:32:
                    5d:8a:47:d3:34:26:e6:cd:43:3d:2a:2a:c2:b1:26:
                    d7:69:fc:90:75:80:1a:7b:65:23:f2:8f:94:32:d3:
                    bd:3a:40:01:21:9c:4a:18:42:9b:74:a3:2a:af:52:
                    be:d2:8f:9e:ab:34:ba:21:cc:58:db:27:62:65:cb:
                    ed:77:29:0d:83:5e:d5:9b:91:72:f6:3a:10:75:8b:
                    b7:a5:16:7b:f7:3f:2c:37:c2:ad:f4:04:0a:32:5c:
                    fc:3b:f6:e5:c5:b1:03:5f:23:dc:61:92:42:e8:9d:
                    a5:0e:97:08:5f:28:7d:01:b3:ea:b3:c9:16:88:cb:
                    39:85:99:cc:92:ab:ed:ff:a8:3e:62:50:48:65:88:
                    e3:ee:8f:5b:5e:84:d8:a0:9c:f8:3b:d6:af:c3:58:
                    6f:ac:b4:66:3e:33:cb:c5:ab:16:77:bf:63:37:86:
                    c6:ac:0d:03:e0:aa:14:6b:88:14:4a:91:6d:11:0c:
                    f3:39:33:d2:ac:d1:26:64:ec:d9:e0:d4:ca:dd:e8:
                    03:e5:1e:1f:71:6c:40:1e:8f:7d:ad:70:53:bd:46:
                    60:0e:84:22:74:ac:f5:03:8d:8f:b7:b2:a7:93:4e:
                    67:17
                Exponent: 65537 (0x10001)
        X509v3 extensions:
            X509v3 Subject Key Identifier: 
                7D:19:A4:0A:BC:90:7C:9D:98:C3:FB:FC:72:22:A0:5A:8D:1E:ED:23
            X509v3 Authority Key Identifier: 
                DirName:/C=US/ST=CA/L=San Jose/CN=www.ixsystems.com/emailAddress=hostmaster@ixsystems.com
                serial:BC:9F:4D:8D:70:52:7B:DF

            X509v3 Basic Constraints: 
                CA:FALSE
            X509v3 Key Usage: 
                Digital Signature, Non Repudiation, Key Encipherment
            X509v3 Subject Alternative Name: 
                DNS:beta-update.freenas.org, DNS:update.freenas.org
            Netscape Comment: 
                OpenSSL Generated Certificate
    Signature Algorithm: sha256WithRSAEncryption
        5b:3e:17:79:55:f7:11:a9:e4:e8:48:08:37:b0:40:6f:f8:22:
        f7:0b:10:46:5e:47:03:05:c3:e7:32:17:40:4c:71:f0:6a:d4:
        b4:7d:e2:9c:2a:85:52:3d:9c:d1:85:f0:ea:1d:31:27:c9:e0:
        6a:3c:4f:c1:6c:9b:23:4c:cd:bb:9a:71:00:e3:8a:3c:2d:3d:
        77:22:ed:4a:5f:c0:de:f7:43:83:47:31:ff:96:a2:73:5a:30:
        7c:4f:d8:10:6b:f3:8b:90:4e:d0:91:86:2a:96:86:5a:8a:bf:
        1c:a6:ac:8d:fb:69:e6:eb:fb:6e:7f:b5:5f:5b:c1:d6:55:20:
        ca:cd:80:9f:bc:f5:6c:57:30:c7:99:5c:76:24:6a:fc:0e:5f:
        56:ff:91:27:ef:21:54:d1:92:7e:58:5f:4f:ba:ef:64:7b:e7:
        84:30:1f:85:45:8b:b1:0e:9d:a7:60:31:fc:e6:60:8b:af:09:
        29:1f:06:52:79:8b:ec:4e:32:18:1c:fb:83:aa:0c:dd:02:5d:
        0e:fa:1e:2e:07:d9:da:91:a3:ec:77:8b:fc:59:be:71:53:b7:
        86:ba:06:a9:9c:85:31:3f:27:01:96:7d:34:23:60:b1:bd:78:
        53:e9:46:19:16:05:22:91:89:cb:31:ef:f0:55:c2:c0:28:92:
        af:02:f4:1c:48:a5:ce:1b:af:aa:35:97:6b:5f:3f:97:c7:aa:
        59:36:e1:35:36:1c:72:18:92:d0:4c:46:05:22:6c:0f:e6:0e:
        af:de:b5:bc:db:44:6a:12:23:96:6a:5d:1a:97:01:55:61:2b:
        aa:68:93:46:02:a0:a3:b3:8f:5f:e2:98:d8:49:17:1f:68:f5:
        22:a1:74:f3:21:ac:0d:d5:65:fa:ea:b8:1c:5f:6b:fd:cc:1a:
        78:64:5a:89:34:62:2c:a6:67:0c:43:fc:8a:8d:9c:7c:23:fa:
        87:ef:64:12:b9:60:99:01:ef:d5:8f:4d:37:51:e4:83:8a:62:
        04:31:49:b4:ff:32:ad:20:dd:1c:8b:4c:87:68:b1:bf:2d:ee:
        84:26:1e:0e:e6:24:55:b8:46:ab:27:79:07:41:06:55:fc:8a:
        bb:bf:74:8c:55:96:f8:8a:3f:d8:0b:3a:af:34:db:58:f6:39:
        e5:bb:46:82:09:e8:5c:fe:c9:fc:a8:ac:99:c5:65:7d:a4:5d:
        62:0a:ec:22:0c:e8:86:8a:28:49:93:2d:27:de:f5:63:06:7c:
        5b:aa:90:81:67:25:a3:f5:b3:d6:11:cd:fe:d9:b9:2d:ce:c3:
        b8:de:61:22:60:05:ab:f2:dc:a7:f9:71:cb:05:ab:69:bd:1f:
        9f:7a:a9:8a:32:da:06:13
-----BEGIN CERTIFICATE-----
MIIFazCCA1OgAwIBAgIBBjANBgkqhkiG9w0BAQsFADByMQswCQYDVQQGEwJVUzEL
MAkGA1UECAwCQ0ExETAPBgNVBAcMCFNhbiBKb3NlMRowGAYDVQQDDBF3d3cuaXhz
eXN0ZW1zLmNvbTEnMCUGCSqGSIb3DQEJARYYaG9zdG1hc3RlckBpeHN5c3RlbXMu
Y29tMB4XDTE2MDYwNjE3NTkzNloXDTI2MDMwNjE3NTkzNlowSjELMAkGA1UEBhMC
VVMxCzAJBgNVBAgMAkNBMREwDwYDVQQHDAhTYW4gSm9zZTEbMBkGA1UEAwwSdXBk
YXRlLmZyZWVuYXMub3JnMIIBIjANBgkqhkiG9w0BAQEFAAOCAQ8AMIIBCgKCAQEA
0X4l5yXuIyE/D6mng1fObwa2SKlU9HftD2JFeTJdikfTNCbmzUM9KirCsSbXafyQ
dYAae2Uj8o+UMtO9OkABIZxKGEKbdKMqr1K+0o+eqzS6IcxY2ydiZcvtdykNg17V
m5Fy9joQdYu3pRZ79z8sN8Kt9AQKMlz8O/blxbEDXyPcYZJC6J2lDpcIXyh9AbPq
s8kWiMs5hZnMkqvt/6g+YlBIZYjj7o9bXoTYoJz4O9avw1hvrLRmPjPLxasWd79j
N4bGrA0D4KoUa4gUSpFtEQzzOTPSrNEmZOzZ4NTK3egD5R4fcWxAHo99rXBTvUZg
DoQidKz1A42Pt7Knk05nFwIDAQABo4IBMjCCAS4wHQYDVR0OBBYEFH0ZpAq8kHyd
mMP7/HIioFqNHu0jMIGOBgNVHSMEgYYwgYOhdqR0MHIxCzAJBgNVBAYTAlVTMQsw
CQYDVQQIDAJDQTERMA8GA1UEBwwIU2FuIEpvc2UxGjAYBgNVBAMMEXd3dy5peHN5
c3RlbXMuY29tMScwJQYJKoZIhvcNAQkBFhhob3N0bWFzdGVyQGl4c3lzdGVtcy5j
b22CCQC8n02NcFJ73zAJBgNVHRMEAjAAMAsGA1UdDwQEAwIF4DA2BgNVHREELzAt
ghdiZXRhLXVwZGF0ZS5mcmVlbmFzLm9yZ4ISdXBkYXRlLmZyZWVuYXMub3JnMCwG
CWCGSAGG+EIBDQQfFh1PcGVuU1NMIEdlbmVyYXRlZCBDZXJ0aWZpY2F0ZTANBgkq
hkiG9w0BAQsFAAOCAgEAWz4XeVX3Eank6EgIN7BAb/gi9wsQRl5HAwXD5zIXQExx
8GrUtH3inCqFUj2c0YXw6h0xJ8ngajxPwWybI0zNu5pxAOOKPC09dyLtSl/A3vdD
g0cx/5aic1owfE/YEGvzi5BO0JGGKpaGWoq/HKasjftp5uv7bn+1X1vB1lUgys2A
n7z1bFcwx5lcdiRq/A5fVv+RJ+8hVNGSflhfT7rvZHvnhDAfhUWLsQ6dp2Ax/OZg
i68JKR8GUnmL7E4yGBz7g6oM3QJdDvoeLgfZ2pGj7HeL/Fm+cVO3hroGqZyFMT8n
AZZ9NCNgsb14U+lGGRYFIpGJyzHv8FXCwCiSrwL0HEilzhuvqjWXa18/l8eqWTbh
NTYcchiS0ExGBSJsD+YOr961vNtEahIjlmpdGpcBVWErqmiTRgKgo7OPX+KY2EkX
H2j1IqF08yGsDdVl+uq4HF9r/cwaeGRaiTRiLKZnDEP8io2cfCP6h+9kErlgmQHv
1Y9NN1Hkg4piBDFJtP8yrSDdHItMh2ixvy3uhCYeDuYkVbhGqyd5B0EGVfyKu790
jFWW+Io/2As6rzTbWPY55btGggnoXP7J/KismcVlfaRdYgrsIgzohoooSZMtJ971
YwZ8W6qQgWclo/Wz1hHN/tm5Lc7DuN5hImAFq/Lcp/lxywWrab0fn3qpijLaBhM=
-----END CERTIFICATE-----
