Certificate:
    Data:
        Version: 3 (0x2)
        Serial Number: 7 (0x7)
        Signature Algorithm: sha256WithRSAEncryption
        Issuer: C=US, ST=CA, L=San Jose, CN=www.ixsystems.com/emailAddress=hostmaster@ixsystems.com
        Validity
            Not Before: Jun  6 17:59:57 2016 GMT
            Not After : Mar  6 17:59:57 2026 GMT
        Subject: C=US, ST=CA, L=San Jose, CN=update.freenas.org
        Subject Public Key Info:
            Public Key Algorithm: rsaEncryption
            RSA Public Key: (2048 bit)
                Modulus (2048 bit):
                    00:e1:fd:a6:dc:04:64:77:83:83:41:5c:8e:af:4b:
                    d3:79:74:a8:8b:aa:87:8c:4a:91:5f:12:a3:f1:b5:
                    65:2c:fe:39:89:d7:a9:1f:9a:26:00:c2:79:c6:04:
                    6e:05:65:60:43:81:ba:70:2f:e2:48:e1:4f:f0:d3:
                    86:d2:4b:60:1f:8a:46:45:20:60:3c:9c:08:0a:82:
                    7d:85:b8:8d:c2:b4:03:f5:77:6c:5b:6e:86:8d:43:
                    7a:44:81:78:8a:f4:5d:68:4a:25:52:7b:6c:2d:3d:
                    79:c6:4a:ca:57:ba:30:60:ab:84:bc:b7:38:f9:1f:
                    8a:09:d6:8d:fc:6a:60:7b:ae:0f:84:cb:9c:c6:ec:
                    1e:dc:d4:1a:6e:06:d1:50:33:05:92:b9:8f:51:67:
                    e8:03:61:03:35:6e:61:e9:77:35:f0:db:23:96:61:
                    5e:70:f3:2d:28:bf:bb:5d:45:a8:ce:76:d1:16:76:
                    49:25:89:18:60:0d:b7:da:d6:10:ae:50:b7:83:70:
                    95:ae:af:48:98:43:9e:9b:71:20:34:01:d5:30:34:
                    7d:bc:01:25:b0:6b:8b:9f:dc:a6:fb:ef:3a:56:98:
                    71:51:f8:22:40:9d:0b:48:1e:9f:bf:66:e6:85:13:
                    7a:55:3e:fb:99:86:53:f1:a8:8c:2b:f8:c2:cc:6d:
                    67:4d
                Exponent: 65537 (0x10001)
        X509v3 extensions:
            X509v3 Subject Key Identifier: 
                CE:26:04:5A:52:CA:17:E5:A3:2C:D5:B8:9C:CE:0C:91:92:66:7F:A8
            X509v3 Authority Key Identifier: 
                DirName:/C=US/ST=CA/L=San Jose/CN=www.ixsystems.com/emailAddress=hostmaster@ixsystems.com
                serial:BC:9F:4D:8D:70:52:7B:DF

            X509v3 Basic Constraints: 
                CA:FALSE
            X509v3 Key Usage: 
                Digital Signature, Non Repudiation, Key Encipherment
            X509v3 Subject Alternative Name: 
                DNS:beta-update.freenas.org, DNS:update.freenas.org
            Netscape Comment: 
                OpenSSL Generated Certificate
    Signature Algorithm: sha256WithRSAEncryption
        c8:79:0d:8b:61:9c:17:fc:a1:7d:ee:40:6c:82:cb:55:ce:36:
        ab:9f:9e:b4:69:a2:98:d8:27:a4:15:ca:ca:49:ce:87:1d:c4:
        90:54:93:15:a7:d3:0b:b5:8e:0e:f9:ba:35:53:cd:fc:6c:b0:
        86:9f:38:a5:17:c4:9e:5c:31:bf:70:db:1b:2c:4c:99:2c:ab:
        5f:a2:9f:29:67:ab:e7:f5:9c:fc:d0:d2:14:88:85:4b:d1:05:
        ec:1e:c1:ad:68:76:fc:a3:cb:ab:c7:ba:55:da:4e:14:0b:b1:
        1f:d7:14:e0:d3:b9:16:58:a5:42:1f:f0:cf:d7:5c:fc:bd:f4:
        b5:f3:4e:7a:99:96:bc:43:76:d8:38:b6:fa:0b:aa:fc:b8:b8:
        c2:7b:43:8f:0e:ca:df:61:cb:74:70:b7:83:64:9e:2a:12:0d:
        93:b5:35:6c:d3:63:aa:47:3a:89:41:26:a2:c6:93:40:b5:a2:
        fb:4d:7f:d6:17:1c:98:03:0b:bb:d1:16:01:8b:7e:74:40:f5:
        d4:10:d7:a1:cc:ad:4b:ac:1d:01:30:92:1c:fa:f9:3d:72:86:
        eb:3d:59:21:7f:8c:30:e4:9d:63:59:b2:2f:6f:63:05:bc:ff:
        4d:e1:d5:f2:a7:93:76:d3:c6:c8:66:cf:f9:a7:00:e2:eb:9b:
        ef:96:30:cb:5a:9c:25:e6:d6:b3:8d:b7:fe:fa:13:90:f2:4d:
        6f:f4:54:94:d7:13:a2:b3:db:3a:65:5b:f5:b1:45:91:1c:d5:
        ca:2a:75:62:e5:ae:f7:35:df:de:0c:20:e8:47:a9:54:53:bf:
        eb:62:bf:a9:58:13:0f:95:6c:b6:c6:65:a9:df:c3:89:fc:69:
        37:bd:0a:50:47:ff:91:2a:26:dc:54:5e:2d:f0:37:5f:02:c4:
        de:1b:ed:02:e8:8d:b4:13:7e:11:bc:a8:06:a4:05:10:03:d7:
        a3:4a:25:8d:f9:d6:4b:d0:28:1d:7e:9e:05:0b:1f:0a:92:1f:
        ae:f9:98:a9:f1:55:a4:20:84:61:71:43:77:00:13:98:0e:ac:
        49:d2:62:e0:d7:7d:17:b1:eb:b3:5e:43:a2:ea:48:f6:15:e8:
        ef:b6:d6:66:7a:4c:f6:8c:9c:8a:59:f0:11:0a:89:96:98:8c:
        0b:86:55:c8:8e:5f:da:bc:44:45:91:4f:99:be:ce:e4:79:f4:
        ed:aa:5d:b0:74:4f:bb:fb:7c:75:97:d0:5e:ea:32:90:ea:3f:
        da:c1:f9:cf:9f:75:a6:39:bd:d1:fb:2d:f1:ec:2e:35:76:3d:
        f8:2e:0b:89:83:7a:75:d8:5a:8a:d9:d4:4e:59:f6:4f:00:bd:
        b9:55:ab:05:21:67:00:52
-----BEGIN CERTIFICATE-----
MIIFazCCA1OgAwIBAgIBBzANBgkqhkiG9w0BAQsFADByMQswCQYDVQQGEwJVUzEL
MAkGA1UECAwCQ0ExETAPBgNVBAcMCFNhbiBKb3NlMRowGAYDVQQDDBF3d3cuaXhz
eXN0ZW1zLmNvbTEnMCUGCSqGSIb3DQEJARYYaG9zdG1hc3RlckBpeHN5c3RlbXMu
Y29tMB4XDTE2MDYwNjE3NTk1N1oXDTI2MDMwNjE3NTk1N1owSjELMAkGA1UEBhMC
VVMxCzAJBgNVBAgMAkNBMREwDwYDVQQHDAhTYW4gSm9zZTEbMBkGA1UEAwwSdXBk
YXRlLmZyZWVuYXMub3JnMIIBIjANBgkqhkiG9w0BAQEFAAOCAQ8AMIIBCgKCAQEA
4f2m3ARkd4ODQVyOr0vTeXSoi6qHjEqRXxKj8bVlLP45idepH5omAMJ5xgRuBWVg
Q4G6cC/iSOFP8NOG0ktgH4pGRSBgPJwICoJ9hbiNwrQD9XdsW26GjUN6RIF4ivRd
aEolUntsLT15xkrKV7owYKuEvLc4+R+KCdaN/Gpge64PhMucxuwe3NQabgbRUDMF
krmPUWfoA2EDNW5h6Xc18NsjlmFecPMtKL+7XUWoznbRFnZJJYkYYA232tYQrlC3
g3CVrq9ImEOem3EgNAHVMDR9vAElsGuLn9ym++86VphxUfgiQJ0LSB6fv2bmhRN6
VT77mYZT8aiMK/jCzG1nTQIDAQABo4IBMjCCAS4wHQYDVR0OBBYEFM4mBFpSyhfl
oyzVuJzODJGSZn+oMIGOBgNVHSMEgYYwgYOhdqR0MHIxCzAJBgNVBAYTAlVTMQsw
CQYDVQQIDAJDQTERMA8GA1UEBwwIU2FuIEpvc2UxGjAYBgNVBAMMEXd3dy5peHN5
c3RlbXMuY29tMScwJQYJKoZIhvcNAQkBFhhob3N0bWFzdGVyQGl4c3lzdGVtcy5j
b22CCQC8n02NcFJ73zAJBgNVHRMEAjAAMAsGA1UdDwQEAwIF4DA2BgNVHREELzAt
ghdiZXRhLXVwZGF0ZS5mcmVlbmFzLm9yZ4ISdXBkYXRlLmZyZWVuYXMub3JnMCwG
CWCGSAGG+EIBDQQfFh1PcGVuU1NMIEdlbmVyYXRlZCBDZXJ0aWZpY2F0ZTANBgkq
hkiG9w0BAQsFAAOCAgEAyHkNi2GcF/yhfe5AbILLVc42q5+etGmimNgnpBXKyknO
hx3EkFSTFafTC7WODvm6NVPN/Gywhp84pRfEnlwxv3DbGyxMmSyrX6KfKWer5/Wc
/NDSFIiFS9EF7B7BrWh2/KPLq8e6VdpOFAuxH9cU4NO5FlilQh/wz9dc/L30tfNO
epmWvEN22Di2+guq/Li4wntDjw7K32HLdHC3g2SeKhINk7U1bNNjqkc6iUEmosaT
QLWi+01/1hccmAMLu9EWAYt+dED11BDXocytS6wdATCSHPr5PXKG6z1ZIX+MMOSd
Y1myL29jBbz/TeHV8qeTdtPGyGbP+acA4uub75Ywy1qcJebWs423/voTkPJNb/RU
lNcTorPbOmVb9bFFkRzVyip1YuWu9zXf3gwg6EepVFO/62K/qVgTD5VstsZlqd/D
ifxpN70KUEf/kSom3FReLfA3XwLE3hvtAuiNtBN+EbyoBqQFEAPXo0oljfnWS9Ao
HX6eBQsfCpIfrvmYqfFVpCCEYXFDdwATmA6sSdJi4Nd9F7Hrs15DoupI9hXo77bW
ZnpM9oycilnwEQqJlpiMC4ZVyI5f2rxERZFPmb7O5Hn07apdsHRPu/t8dZfQXuoy
kOo/2sH5z591pjm90fst8ewuNXY9+C4LiYN6ddhaitnUTln2TwC9uVWrBSFnAFI=
-----END CERTIFICATE-----
