Certificate:
    Data:
        Version: 3 (0x2)
        Serial Number: 9 (0x9)
        Signature Algorithm: sha256WithRSAEncryption
        Issuer: C=US, ST=CA, L=San Jose, CN=www.ixsystems.com/emailAddress=hostmaster@ixsystems.com
        Validity
            Not Before: Jun  6 18:00:21 2016 GMT
            Not After : Mar  6 18:00:21 2026 GMT
        Subject: C=US, ST=CA, L=San Jose, CN=update.freenas.org
        Subject Public Key Info:
            Public Key Algorithm: rsaEncryption
            RSA Public Key: (4096 bit)
                Modulus (4096 bit):
                    00:ae:58:13:c8:cb:48:da:ec:90:a8:27:f7:a4:13:
                    98:d1:95:da:f3:89:10:da:05:7c:e0:79:ca:73:85:
                    56:94:7c:60:37:f3:ce:ef:ca:68:1c:d1:07:17:e5:
                    5b:b3:1d:bf:3d:49:9c:62:0a:24:5d:57:d5:46:02:
                    d1:1d:6c:c0:f4:cf:53:df:95:8d:3c:20:ee:51:d4:
                    09:53:e7:b3:de:7c:03:2f:69:03:29:ba:2c:9f:78:
                    95:a5:f7:d3:d6:74:16:29:33:82:36:d1:60:5f:68:
                    1f:0e:1c:86:f8:2c:78:a1:61:1e:b7:c1:5d:7e:6d:
                    a4:41:04:f4:32:8e:b4:c8:8f:cc:66:00:ee:72:78:
                    66:b2:5f:a8:82:db:49:3b:09:e7:e2:ea:af:8c:c6:
                    d0:9f:95:96:c2:5c:b7:3b:a9:8c:01:56:73:4f:4a:
                    1f:b6:ca:69:70:73:37:43:8d:d4:c5:13:53:4f:74:
                    bc:42:0f:fb:65:49:a1:c4:9f:be:e0:7e:8b:c1:09:
                    86:6d:f6:be:43:bb:01:76:db:ec:ef:21:45:f0:fc:
                    32:25:ec:f6:5a:36:8e:83:25:28:d5:6d:91:3b:64:
                    e2:c3:cd:e7:98:4e:79:1a:e6:20:8f:ee:32:e6:ce:
                    19:00:4b:97:40:2f:f8:8e:2b:af:91:03:a3:12:aa:
                    8c:d3:c5:45:43:06:96:2f:3e:a2:5a:4e:9e:4e:df:
                    1c:30:7b:e0:54:d7:86:3a:a9:40:c6:a5:97:64:a5:
                    af:ba:09:4c:69:d9:12:fb:1c:50:20:53:c9:a8:f3:
                    4e:63:40:d4:df:86:28:9c:b3:cd:97:be:13:fa:85:
                    da:0a:5c:18:4d:5e:ee:0f:93:68:75:b5:b3:f4:8a:
                    02:59:e1:db:bc:d3:de:2a:63:00:ed:c3:62:b6:9b:
                    32:65:0f:2c:ce:ab:e6:67:09:59:8d:63:f9:1c:60:
                    14:c6:9a:db:37:a4:ab:3d:6b:64:78:cd:c9:e4:77:
                    28:4b:bf:85:e2:ee:d1:0b:05:2c:99:9a:c4:db:45:
                    f8:d6:59:06:a6:13:4d:78:bb:7f:3c:65:88:de:15:
                    ea:7f:83:b1:d2:76:13:e0:0b:b3:8b:9a:5c:2b:77:
                    3f:ae:87:0e:a7:95:78:aa:37:8f:3a:58:dc:25:0d:
                    25:aa:53:d8:ca:5a:7d:64:c2:48:8a:7e:41:13:a0:
                    96:5a:61:30:0b:05:66:23:26:77:70:82:dc:a1:bb:
                    31:0c:93:26:8f:c0:2c:14:99:6b:97:b7:b7:8d:50:
                    e8:dd:98:25:5d:47:ba:a6:e7:fc:f8:e3:b2:8e:b8:
                    a9:89:39:b0:af:2a:bc:6d:12:57:d9:17:b7:2a:f6:
                    46:7e:bf
                Exponent: 65537 (0x10001)
        X509v3 extensions:
            X509v3 Subject Key Identifier: 
                A1:A3:4A:36:61:AB:8D:AE:5A:93:82:E0:A1:47:18:20:E8:B7:C3:D5
            X509v3 Authority Key Identifier: 
                DirName:/C=US/ST=CA/L=San Jose/CN=www.ixsystems.com/emailAddress=hostmaster@ixsystems.com
                serial:BC:9F:4D:8D:70:52:7B:DF

            X509v3 Basic Constraints: 
                CA:FALSE
            X509v3 Key Usage: 
                Digital Signature, Non Repudiation, Key Encipherment
            X509v3 Subject Alternative Name: 
                DNS:beta-update.freenas.org, DNS:update.freenas.org
            Netscape Comment: 
                OpenSSL Generated Certificate
    Signature Algorithm: sha256WithRSAEncryption
        c7:52:8b:01:b5:67:b5:b2:90:71:0e:21:a3:3d:c6:47:1b:e0:
        d4:57:8c:0a:66:fd:a2:b5:78:fd:fc:84:c1:28:6d:72:d9:0a:
        41:d1:a8:1e:09:40:21:94:3d:2b:82:b5:34:86:df:de:f6:10:
        41:0a:bd:03:5e:e2:3b:57:d0:be:48:2b:cf:ca:e3:2b:d2:1c:
        c8:55:59:94:95:44:96:ad:e1:ea:53:81:f1:79:95:a8:4c:6c:
        4f:30:81:de:05:29:bb:1b:ac:d4:89:0d:bb:1b:27:ab:be:05:
        b2:81:8e:38:50:8a:e3:75:8c:2c:4b:0a:83:bd:d3:4a:ec:eb:
        3e:a2:0f:3a:85:7f:4d:57:d3:e7:03:e2:f2:ac:ce:02:b3:04:
        11:5a:29:87:56:e0:e3:c4:7c:71:02:f3:c8:28:00:52:04:ab:
        a3:98:fd:e2:3e:2f:7c:18:d1:55:65:d5:66:01:fe:a8:ff:3f:
        55:b1:78:eb:5a:bc:ab:f5:d8:64:f7:c1:55:92:2c:8a:e0:7b:
        09:64:e7:e0:a4:d6:f8:f3:f0:c8:5c:fc:ea:00:67:3c:17:91:
        52:28:d7:e9:e8:cf:0b:e1:ca:ce:d3:a5:7e:4f:1c:78:31:77:
        cc:e1:79:19:3a:7e:57:27:7b:46:91:79:f6:9a:42:c6:00:1c:
        8c:12:8a:e8:4f:ef:b9:70:8d:5f:7b:e3:a5:ef:aa:b7:3e:7b:
        c1:bd:d6:4b:8f:a6:ff:38:ef:3e:a0:5b:fe:d7:82:49:41:12:
        08:ca:fc:31:d1:86:46:7e:f1:a9:90:95:1b:5f:52:37:c0:30:
        c8:57:c0:36:39:2f:73:56:0c:97:52:67:17:36:d0:33:e7:17:
        7a:0b:dc:b5:99:e8:93:27:02:ee:6b:70:24:ca:9f:7a:cf:a7:
        fb:d6:e9:69:06:7f:bc:9e:ef:27:82:6d:64:47:8e:27:8e:0b:
        b3:2b:d5:17:61:e1:71:1d:21:64:46:3c:34:85:be:ee:2d:4c:
        a4:35:b5:85:33:49:97:3e:56:d6:a4:7b:dc:f8:19:c0:82:2f:
        6a:9d:2d:f5:1c:0c:ae:11:25:a8:6d:d5:fb:f3:52:9d:93:1b:
        ae:f0:6e:a2:8e:64:1d:63:01:6b:49:4f:a4:da:4f:ed:b0:fb:
        7e:2d:c0:72:b9:8a:22:cd:a2:0e:1a:3b:7d:88:e0:76:b2:27:
        f8:c2:3a:8e:61:f9:1f:72:be:ba:3f:96:43:6d:c6:41:aa:86:
        e2:55:d0:ca:0f:dc:05:ea:cd:91:44:df:f4:09:af:d7:8b:70:
        01:21:4f:a4:ea:fa:a8:b4:13:46:2e:9a:59:bf:8c:cc:61:4e:
        de:26:33:48:bd:d1:3a:3f
-----BEGIN CERTIFICATE-----
MIIGazCCBFOgAwIBAgIBCTANBgkqhkiG9w0BAQsFADByMQswCQYDVQQGEwJVUzEL
MAkGA1UECAwCQ0ExETAPBgNVBAcMCFNhbiBKb3NlMRowGAYDVQQDDBF3d3cuaXhz
eXN0ZW1zLmNvbTEnMCUGCSqGSIb3DQEJARYYaG9zdG1hc3RlckBpeHN5c3RlbXMu
Y29tMB4XDTE2MDYwNjE4MDAyMVoXDTI2MDMwNjE4MDAyMVowSjELMAkGA1UEBhMC
VVMxCzAJBgNVBAgMAkNBMREwDwYDVQQHDAhTYW4gSm9zZTEbMBkGA1UEAwwSdXBk
YXRlLmZyZWVuYXMub3JnMIICIjANBgkqhkiG9w0BAQEFAAOCAg8AMIICCgKCAgEA
rlgTyMtI2uyQqCf3pBOY0ZXa84kQ2gV84HnKc4VWlHxgN/PO78poHNEHF+Vbsx2/
PUmcYgokXVfVRgLRHWzA9M9T35WNPCDuUdQJU+ez3nwDL2kDKbosn3iVpffT1nQW
KTOCNtFgX2gfDhyG+Cx4oWEet8Fdfm2kQQT0Mo60yI/MZgDucnhmsl+ogttJOwnn
4uqvjMbQn5WWwly3O6mMAVZzT0oftsppcHM3Q43UxRNTT3S8Qg/7ZUmhxJ++4H6L
wQmGbfa+Q7sBdtvs7yFF8PwyJez2WjaOgyUo1W2RO2Tiw83nmE55GuYgj+4y5s4Z
AEuXQC/4jiuvkQOjEqqM08VFQwaWLz6iWk6eTt8cMHvgVNeGOqlAxqWXZKWvuglM
adkS+xxQIFPJqPNOY0DU34YonLPNl74T+oXaClwYTV7uD5NodbWz9IoCWeHbvNPe
KmMA7cNitpsyZQ8szqvmZwlZjWP5HGAUxprbN6SrPWtkeM3J5HcoS7+F4u7RCwUs
mZrE20X41lkGphNNeLt/PGWI3hXqf4Ox0nYT4Auzi5pcK3c/rocOp5V4qjePOljc
JQ0lqlPYylp9ZMJIin5BE6CWWmEwCwVmIyZ3cILcobsxDJMmj8AsFJlrl7e3jVDo
3ZglXUe6puf8+OOyjripiTmwryq8bRJX2Re3KvZGfr8CAwEAAaOCATIwggEuMB0G
A1UdDgQWBBSho0o2YauNrlqTguChRxgg6LfD1TCBjgYDVR0jBIGGMIGDoXakdDBy
MQswCQYDVQQGEwJVUzELMAkGA1UECAwCQ0ExETAPBgNVBAcMCFNhbiBKb3NlMRow
GAYDVQQDDBF3d3cuaXhzeXN0ZW1zLmNvbTEnMCUGCSqGSIb3DQEJARYYaG9zdG1h
c3RlckBpeHN5c3RlbXMuY29tggkAvJ9NjXBSe98wCQYDVR0TBAIwADALBgNVHQ8E
BAMCBeAwNgYDVR0RBC8wLYIXYmV0YS11cGRhdGUuZnJlZW5hcy5vcmeCEnVwZGF0
ZS5mcmVlbmFzLm9yZzAsBglghkgBhvhCAQ0EHxYdT3BlblNTTCBHZW5lcmF0ZWQg
Q2VydGlmaWNhdGUwDQYJKoZIhvcNAQELBQADggIBAMdSiwG1Z7WykHEOIaM9xkcb
4NRXjApm/aK1eP38hMEobXLZCkHRqB4JQCGUPSuCtTSG3972EEEKvQNe4jtX0L5I
K8/K4yvSHMhVWZSVRJat4epTgfF5lahMbE8wgd4FKbsbrNSJDbsbJ6u+BbKBjjhQ
iuN1jCxLCoO900rs6z6iDzqFf01X0+cD4vKszgKzBBFaKYdW4OPEfHEC88goAFIE
q6OY/eI+L3wY0VVl1WYB/qj/P1WxeOtavKv12GT3wVWSLIrgewlk5+Ck1vjz8Mhc
/OoAZzwXkVIo1+nozwvhys7TpX5PHHgxd8zheRk6flcne0aRefaaQsYAHIwSiuhP
77lwjV9746Xvqrc+e8G91kuPpv847z6gW/7XgklBEgjK/DHRhkZ+8amQlRtfUjfA
MMhXwDY5L3NWDJdSZxc20DPnF3oL3LWZ6JMnAu5rcCTKn3rPp/vW6WkGf7ye7yeC
bWRHjieOC7Mr1Rdh4XEdIWRGPDSFvu4tTKQ1tYUzSZc+Vtake9z4GcCCL2qdLfUc
DK4RJaht1fvzUp2TG67wbqKOZB1jAWtJT6TaT+2w+34twHK5iiLNog4aO32I4Hay
J/jCOo5h+R9yvro/lkNtxkGqhuJV0MoP3AXqzZFE3/QJr9eLcAEhT6Tq+qi0E0Yu
mlm/jMxhTt4mM0i90To/
-----END CERTIFICATE-----
