Certificate:
    Data:
        Version: 3 (0x2)
        Serial Number: 8 (0x8)
        Signature Algorithm: sha256WithRSAEncryption
        Issuer: C=US, ST=CA, L=San Jose, CN=www.ixsystems.com/emailAddress=hostmaster@ixsystems.com
        Validity
            Not Before: Jun  6 18:00:13 2016 GMT
            Not After : Mar  6 18:00:13 2026 GMT
        Subject: C=US, ST=CA, L=San Jose, CN=update.freenas.org
        Subject Public Key Info:
            Public Key Algorithm: rsaEncryption
            RSA Public Key: (4096 bit)
                Modulus (4096 bit):
                    00:c6:82:05:cf:05:c8:ce:ec:42:9c:3f:98:89:71:
                    f3:a5:6f:bb:1b:89:04:6d:6d:7e:c5:cc:88:a7:5e:
                    d7:cc:76:95:87:09:4b:a1:73:5e:d9:09:ee:49:0d:
                    29:cd:f2:98:86:71:33:57:63:4b:7e:61:7f:13:05:
                    ce:da:b8:8f:c3:f4:2f:7c:fe:93:0d:7e:0e:26:1e:
                    e2:54:10:f4:28:0d:8c:0c:06:6f:45:22:9a:02:96:
                    17:d5:17:4b:5c:39:ee:40:16:ad:79:89:30:4d:d1:
                    b7:10:ad:87:29:ec:19:97:2d:45:f0:4b:c7:95:09:
                    50:60:b2:01:85:fc:f9:4c:c0:e6:07:f4:77:6e:e6:
                    0e:20:d6:ea:1e:76:01:03:f1:ed:dd:af:de:96:f6:
                    6e:27:d9:58:f0:04:42:16:98:d3:6b:27:c1:4b:39:
                    bd:ae:1c:a2:4a:f0:1d:df:b1:0b:64:13:dc:17:aa:
                    b6:09:d1:38:ed:53:5f:19:c9:50:dd:d9:02:91:82:
                    26:94:7b:94:25:56:fc:c0:d8:b7:d6:8a:7a:98:56:
                    47:52:1a:d4:2f:ba:a9:da:f1:04:7f:80:eb:5d:12:
                    c5:de:99:8b:5d:06:f7:98:57:1e:ac:c8:52:79:8e:
                    1c:8b:82:90:5b:80:bb:a3:79:9d:ee:41:eb:2e:6c:
                    4f:6e:2c:e2:34:90:61:ee:2a:95:00:bb:8e:ac:2c:
                    66:cf:a0:9c:1f:e0:85:f8:cd:25:98:44:6d:23:ec:
                    c5:d0:c9:35:08:74:3b:04:ae:90:97:5e:78:e1:e2:
                    02:5f:09:95:4e:d8:6f:5b:c4:40:1e:30:2c:12:ca:
                    16:c8:22:e9:5d:c8:8d:67:d5:7a:28:32:c8:10:d5:
                    aa:80:21:d1:3e:a5:1a:35:5f:38:b1:38:07:33:74:
                    cb:cb:96:21:01:53:d1:1b:26:7b:6e:31:21:33:d1:
                    d8:64:64:14:a3:e3:2f:23:d1:4f:22:a1:80:c7:53:
                    b4:4a:28:a7:59:5a:e4:61:03:3d:59:04:5b:88:d6:
                    05:f3:32:17:1c:01:e1:86:ec:b9:30:03:ce:34:21:
                    19:f7:f6:e7:3b:d8:b0:bd:d5:49:5b:97:98:2c:a6:
                    b9:02:c6:2f:4b:4d:e8:17:7b:b1:79:12:f1:bb:39:
                    c0:ac:c6:20:b7:de:fc:a3:7a:43:8a:2c:94:a7:ae:
                    96:50:75:ea:1c:a0:85:d5:81:94:b6:c7:de:e1:3e:
                    77:38:6c:c5:33:b7:99:b0:1b:ac:72:50:47:3c:e5:
                    74:c0:a5:11:4d:d8:25:d6:e7:09:fa:93:38:85:6d:
                    67:66:13:c3:55:a6:ad:75:aa:23:29:f5:aa:db:d5:
                    11:92:99
                Exponent: 65537 (0x10001)
        X509v3 extensions:
            X509v3 Subject Key Identifier: 
                76:42:12:57:D9:B3:0B:80:25:4E:C4:B1:F5:3B:85:46:00:E3:94:6A
            X509v3 Authority Key Identifier: 
                DirName:/C=US/ST=CA/L=San Jose/CN=www.ixsystems.com/emailAddress=hostmaster@ixsystems.com
                serial:BC:9F:4D:8D:70:52:7B:DF

            X509v3 Basic Constraints: 
                CA:FALSE
            X509v3 Key Usage: 
                Digital Signature, Non Repudiation, Key Encipherment
            X509v3 Subject Alternative Name: 
                DNS:beta-update.freenas.org, DNS:update.freenas.org
            Netscape Comment: 
                OpenSSL Generated Certificate
    Signature Algorithm: sha256WithRSAEncryption
        7d:67:fa:50:82:9a:53:f9:de:e0:26:89:5f:6a:65:a3:1f:cc:
        d7:2e:bf:55:9e:09:af:31:3f:cc:b5:a7:5e:04:de:a8:90:50:
        2d:ba:a5:ec:92:7e:2e:74:91:c1:55:c5:dc:ce:9d:f9:43:4f:
        ec:c4:e4:4f:45:64:93:3f:9f:16:a8:51:b8:a3:9c:60:f8:97:
        49:bc:4b:77:8e:24:21:c4:e9:04:30:82:ea:4c:7c:dc:b1:be:
        5a:0c:3f:d4:44:e3:34:8a:a4:b9:d3:7e:d7:f9:99:e2:55:b3:
        ef:91:38:33:15:55:6d:65:f1:da:e8:56:c8:02:da:96:ed:4e:
        63:6a:d4:35:a6:01:48:22:92:06:a7:2f:94:b6:ae:e2:57:d9:
        d0:66:0f:65:4f:52:19:6a:55:e5:14:7e:ec:b9:ad:f0:47:5b:
        ef:55:ab:ee:b5:c2:83:cc:e4:33:87:ba:65:98:e8:18:0a:43:
        f6:03:0a:bb:ec:99:49:be:ad:c5:1a:8e:de:72:21:73:24:2a:
        b1:80:42:ee:3f:ad:33:8c:f7:ac:bc:10:4a:b2:52:42:16:ad:
        06:64:39:3c:bf:28:13:63:a4:49:7d:06:17:23:89:82:b2:0b:
        40:2d:6e:f2:db:dc:44:d3:ca:d2:a1:d0:f1:29:ed:84:90:00:
        ad:11:f5:02:5a:dc:b1:23:1f:62:48:d3:9f:31:fc:6d:47:23:
        65:50:df:8a:58:cb:0e:27:19:5d:9b:c3:29:ab:6f:8c:d4:32:
        32:f2:96:8f:24:e5:08:f9:32:44:74:82:87:e4:42:5a:36:f3:
        df:29:67:b3:a6:55:fd:72:7e:01:5a:df:bd:1b:20:8d:11:ba:
        07:d5:fb:83:54:3a:2e:4e:6b:f8:0f:53:5b:f6:f1:4d:02:2a:
        a8:fd:04:bb:10:33:77:84:8e:eb:25:70:5e:ad:75:14:d8:f5:
        6b:30:ae:03:0e:60:13:b7:9b:c8:6a:32:4b:8a:b6:db:84:4a:
        13:8a:d6:6d:ac:82:62:97:ad:d1:38:42:6d:e0:37:97:a8:4f:
        ea:6a:9e:e7:b2:78:1a:d2:a7:fa:06:c6:25:f4:40:46:e0:9b:
        5f:89:16:4f:0f:e4:ce:42:07:20:ef:92:88:a8:e8:bf:ff:19:
        4d:26:d7:9c:14:ec:6c:3c:52:27:c8:53:92:c7:2b:de:00:67:
        97:9d:6a:0f:f1:a9:4b:08:13:71:f2:32:82:ca:e4:56:0a:75:
        cd:ea:8f:aa:eb:44:51:a8:18:f7:83:6d:e0:cc:8c:4d:f6:b5:
        f8:a9:68:d2:3b:55:07:c6:9b:09:90:9a:ce:f3:dd:b5:f3:f7:
        64:83:73:11:0a:b7:90:18
-----BEGIN CERTIFICATE-----
MIIGazCCBFOgAwIBAgIBCDANBgkqhkiG9w0BAQsFADByMQswCQYDVQQGEwJVUzEL
MAkGA1UECAwCQ0ExETAPBgNVBAcMCFNhbiBKb3NlMRowGAYDVQQDDBF3d3cuaXhz
eXN0ZW1zLmNvbTEnMCUGCSqGSIb3DQEJARYYaG9zdG1hc3RlckBpeHN5c3RlbXMu
Y29tMB4XDTE2MDYwNjE4MDAxM1oXDTI2MDMwNjE4MDAxM1owSjELMAkGA1UEBhMC
VVMxCzAJBgNVBAgMAkNBMREwDwYDVQQHDAhTYW4gSm9zZTEbMBkGA1UEAwwSdXBk
YXRlLmZyZWVuYXMub3JnMIICIjANBgkqhkiG9w0BAQEFAAOCAg8AMIICCgKCAgEA
xoIFzwXIzuxCnD+YiXHzpW+7G4kEbW1+xcyIp17XzHaVhwlLoXNe2QnuSQ0pzfKY
hnEzV2NLfmF/EwXO2riPw/QvfP6TDX4OJh7iVBD0KA2MDAZvRSKaApYX1RdLXDnu
QBateYkwTdG3EK2HKewZly1F8EvHlQlQYLIBhfz5TMDmB/R3buYOINbqHnYBA/Ht
3a/elvZuJ9lY8ARCFpjTayfBSzm9rhyiSvAd37ELZBPcF6q2CdE47VNfGclQ3dkC
kYImlHuUJVb8wNi31op6mFZHUhrUL7qp2vEEf4DrXRLF3pmLXQb3mFcerMhSeY4c
i4KQW4C7o3md7kHrLmxPbiziNJBh7iqVALuOrCxmz6CcH+CF+M0lmERtI+zF0Mk1
CHQ7BK6Ql1544eICXwmVTthvW8RAHjAsEsoWyCLpXciNZ9V6KDLIENWqgCHRPqUa
NV84sTgHM3TLy5YhAVPRGyZ7bjEhM9HYZGQUo+MvI9FPIqGAx1O0SiinWVrkYQM9
WQRbiNYF8zIXHAHhhuy5MAPONCEZ9/bnO9iwvdVJW5eYLKa5AsYvS03oF3uxeRLx
uznArMYgt978o3pDiiyUp66WUHXqHKCF1YGUtsfe4T53OGzFM7eZsBusclBHPOV0
wKURTdgl1ucJ+pM4hW1nZhPDVaatdaojKfWq29URkpkCAwEAAaOCATIwggEuMB0G
A1UdDgQWBBR2QhJX2bMLgCVOxLH1O4VGAOOUajCBjgYDVR0jBIGGMIGDoXakdDBy
MQswCQYDVQQGEwJVUzELMAkGA1UECAwCQ0ExETAPBgNVBAcMCFNhbiBKb3NlMRow
GAYDVQQDDBF3d3cuaXhzeXN0ZW1zLmNvbTEnMCUGCSqGSIb3DQEJARYYaG9zdG1h
c3RlckBpeHN5c3RlbXMuY29tggkAvJ9NjXBSe98wCQYDVR0TBAIwADALBgNVHQ8E
BAMCBeAwNgYDVR0RBC8wLYIXYmV0YS11cGRhdGUuZnJlZW5hcy5vcmeCEnVwZGF0
ZS5mcmVlbmFzLm9yZzAsBglghkgBhvhCAQ0EHxYdT3BlblNTTCBHZW5lcmF0ZWQg
Q2VydGlmaWNhdGUwDQYJKoZIhvcNAQELBQADggIBAH1n+lCCmlP53uAmiV9qZaMf
zNcuv1WeCa8xP8y1p14E3qiQUC26peySfi50kcFVxdzOnflDT+zE5E9FZJM/nxao
UbijnGD4l0m8S3eOJCHE6QQwgupMfNyxvloMP9RE4zSKpLnTftf5meJVs++RODMV
VW1l8droVsgC2pbtTmNq1DWmAUgikganL5S2ruJX2dBmD2VPUhlqVeUUfuy5rfBH
W+9Vq+61woPM5DOHumWY6BgKQ/YDCrvsmUm+rcUajt5yIXMkKrGAQu4/rTOM96y8
EEqyUkIWrQZkOTy/KBNjpEl9BhcjiYKyC0AtbvLb3ETTytKh0PEp7YSQAK0R9QJa
3LEjH2JI058x/G1HI2VQ34pYyw4nGV2bwymrb4zUMjLylo8k5Qj5MkR0gofkQlo2
898pZ7OmVf1yfgFa370bII0RugfV+4NUOi5Oa/gPU1v28U0CKqj9BLsQM3eEjusl
cF6tdRTY9WswrgMOYBO3m8hqMkuKttuEShOK1m2sgmKXrdE4Qm3gN5eoT+pqnuey
eBrSp/oGxiX0QEbgm1+JFk8P5M5CByDvkoio6L//GU0m15wU7Gw8UifIU5LHK94A
Z5edag/xqUsIE3HyMoLK5FYKdc3qj6rrRFGoGPeDbeDMjE32tfipaNI7VQfGmwmQ
ms7z3bXz92SDcxEKt5AY
-----END CERTIFICATE-----
